; Function Attrs: nounwind uwtable
define hidden i32 @luaK_numberK(ptr noundef captures(none) %0, double noundef %1) local_unnamed_addr #0 {
  %3 = alloca %struct.lua_TValue, align 8
  call void @llvm.lifetime.start.p0(i64 16, ptr nonnull %3) #8
  store double %1, ptr %3, align 8, !tbaa !39
  %4 = getelementptr inbounds nuw i8, ptr %3, i64 8
  store i32 3, ptr %4, align 8, !tbaa !43
  %5 = call fastcc i32 @addk(ptr noundef %0, ptr noundef %3, ptr noundef %3)
  call void @llvm.lifetime.end.p0(i64 16, ptr nonnull %3) #8
  ret i32 %5
}